target datalayout = "e-m:e-p270:32:32-p271:32:32-p272:64:64-i64:64-i128:128-f80:128-n8:16:32:64-S128"
target triple = "x86_64-unknown-linux-gnu"

%"class.std::__cxx11::basic_string" = type { %"struct.std::__cxx11::basic_string<char>::_Alloc_hider", i64, %union.anon }
%"struct.std::__cxx11::basic_string<char>::_Alloc_hider" = type { ptr }
%union.anon = type { i64, [8 x i8] }
%"class.base::HistogramBase.base" = type <{ ptr, %"class.std::__cxx11::basic_string", i32 }>
%"class.std::unique_ptr.24" = type { %"struct.std::__uniq_ptr_data.25" }
%"struct.std::__uniq_ptr_data.25" = type { %"class.std::__uniq_ptr_impl.26" }
%"class.std::__uniq_ptr_impl.26" = type { %"class.std::tuple.27" }
%"class.std::tuple.27" = type { %"struct.std::_Tuple_impl.28" }
%"struct.std::_Tuple_impl.28" = type { %"struct.std::_Head_base.31" }
%"struct.std::_Head_base.31" = type { ptr }
%"class.std::unique_ptr.32" = type { %"struct.std::__uniq_ptr_data.33" }
%"struct.std::__uniq_ptr_data.33" = type { %"class.std::__uniq_ptr_impl.34" }
%"class.std::__uniq_ptr_impl.34" = type { %"class.std::tuple.35" }
%"class.std::tuple.35" = type { %"struct.std::_Tuple_impl.36" }
%"struct.std::_Tuple_impl.36" = type { %"struct.std::_Head_base.39" }
%"struct.std::_Head_base.39" = type { ptr }
%"class.base::LinearHistogram" = type { %"class.base::Histogram.base", %"class.std::map.61" }
%"class.base::Histogram.base" = type <{ %"class.base::HistogramBase.base", [4 x i8], ptr, i32, i32, %"class.std::unique_ptr.24", %"class.std::unique_ptr.32", i8 }>
%"class.std::map.61" = type { %"class.std::_Rb_tree.62" }
%"class.std::_Rb_tree.62" = type { %"struct.std::_Rb_tree<int, std::pair<const int, std::__cxx11::basic_string<char>>, std::_Select1st<std::pair<const int, std::__cxx11::basic_string<char>>>, std::less<int>>::_Rb_tree_impl" }
%"struct.std::_Rb_tree<int, std::pair<const int, std::__cxx11::basic_string<char>>, std::_Select1st<std::pair<const int, std::__cxx11::basic_string<char>>>, std::less<int>>::_Rb_tree_impl" = type { %"struct.std::_Rb_tree_key_compare.66", %"struct.std::_Rb_tree_header" }
%"struct.std::_Rb_tree_key_compare.66" = type { %"struct.std::less.67" }
%"struct.std::less.67" = type { i8 }
%"struct.std::_Rb_tree_header" = type { %"struct.std::_Rb_tree_node_base", i64 }
%"struct.std::_Rb_tree_node_base" = type { i32, ptr, ptr, ptr }

; Function Attrs: noreturn nounwind uwtable
define linkonce_odr hidden void @__clang_call_terminate(ptr noundef %0) #9 comdat {
  %2 = call ptr @__cxa_begin_catch(ptr %0) #12
  call void @_ZSt9terminatev() #16
  unreachable
}

; Function Attrs: mustprogress nounwind uwtable
define linkonce_odr dso_local void @_ZNSt15_Rb_tree_header8_M_resetEv(ptr noundef nonnull align 8 dereferenceable(40) %this) #2 comdat align 2 {
entry:
  %this.addr = alloca ptr, align 8
  store ptr %this, ptr %this.addr, align 8
  %this1 = load ptr, ptr %this.addr, align 8
  %_M_header = getelementptr inbounds %"struct.std::_Rb_tree_header", ptr %this1, i32 0, i32 0
  %_M_parent = getelementptr inbounds %"struct.std::_Rb_tree_node_base", ptr %_M_header, i32 0, i32 1
  store ptr null, ptr %_M_parent, align 8
  %_M_header2 = getelementptr inbounds %"struct.std::_Rb_tree_header", ptr %this1, i32 0, i32 0
  %_M_header3 = getelementptr inbounds %"struct.std::_Rb_tree_header", ptr %this1, i32 0, i32 0
  %_M_left = getelementptr inbounds %"struct.std::_Rb_tree_node_base", ptr %_M_header3, i32 0, i32 2
  store ptr %_M_header2, ptr %_M_left, align 8
  %_M_header4 = getelementptr inbounds %"struct.std::_Rb_tree_header", ptr %this1, i32 0, i32 0
  %_M_header5 = getelementptr inbounds %"struct.std::_Rb_tree_header", ptr %this1, i32 0, i32 0
  %_M_right = getelementptr inbounds %"struct.std::_Rb_tree_node_base", ptr %_M_header5, i32 0, i32 3
  store ptr %_M_header4, ptr %_M_right, align 8
  %_M_node_count = getelementptr inbounds %"struct.std::_Rb_tree_header", ptr %this1, i32 0, i32 1
  store i64 0, ptr %_M_node_count, align 8
  ret void
}

; Function Attrs: mustprogress nounwind uwtable
define linkonce_odr dso_local void @_ZNSt15__new_allocatorISt13_Rb_tree_nodeISt4pairIKiNSt7__cxx1112basic_stringIcSt11char_traitsIcESaIcEEEEEEC2Ev(ptr noundef nonnull align 1 dereferenceable(1) %this) unnamed_addr #2 comdat align 2 {
entry:
  %this.addr = alloca ptr, align 8
  store ptr %this, ptr %this.addr, align 8
  ret void
}

; Function Attrs: mustprogress nounwind uwtable
define linkonce_odr dso_local void @_ZNSt15_Rb_tree_headerC2Ev(ptr noundef nonnull align 8 dereferenceable(40) %this) unnamed_addr #2 comdat align 2 personality ptr @__gxx_personality_v0 {
entry:
  %this.addr = alloca ptr, align 8
  store ptr %this, ptr %this.addr, align 8
  %this1 = load ptr, ptr %this.addr, align 8
  %_M_header2 = getelementptr inbounds %"struct.std::_Rb_tree_header", ptr %this1, i32 0, i32 0
  %_M_color = getelementptr inbounds %"struct.std::_Rb_tree_node_base", ptr %_M_header2, i32 0, i32 0
  store i32 0, ptr %_M_color, align 8
  invoke void @_ZNSt15_Rb_tree_header8_M_resetEv(ptr noundef nonnull align 8 dereferenceable(40) %this1)
          to label %invoke.cont unwind label %terminate.lpad

invoke.cont:                                      ; preds = %entry
  ret void

terminate.lpad:                                   ; preds = %entry
  %0 = landingpad { ptr, i32 }
          catch ptr null
  %1 = extractvalue { ptr, i32 } %0, 0
  call void @__clang_call_terminate(ptr %1) #16
  unreachable
}

; Function Attrs: mustprogress nounwind uwtable
define linkonce_odr dso_local void @_ZNSt20_Rb_tree_key_compareISt4lessIiEEC2Ev(ptr noundef nonnull align 1 dereferenceable(1) %this) unnamed_addr #2 comdat align 2 {
entry:
  %this.addr = alloca ptr, align 8
  store ptr %this, ptr %this.addr, align 8
  ret void
}

; Function Attrs: mustprogress nounwind uwtable
define linkonce_odr dso_local void @_ZNSaISt13_Rb_tree_nodeISt4pairIKiNSt7__cxx1112basic_stringIcSt11char_traitsIcESaIcEEEEEEC2Ev(ptr noundef nonnull align 1 dereferenceable(1) %this) unnamed_addr #2 comdat align 2 {
entry:
  %this.addr = alloca ptr, align 8
  store ptr %this, ptr %this.addr, align 8
  %this1 = load ptr, ptr %this.addr, align 8
  call void @_ZNSt15__new_allocatorISt13_Rb_tree_nodeISt4pairIKiNSt7__cxx1112basic_stringIcSt11char_traitsIcESaIcEEEEEEC2Ev(ptr noundef nonnull align 1 dereferenceable(1) %this1) #12
  ret void
}

; Function Attrs: mustprogress nounwind uwtable
define linkonce_odr dso_local void @_ZNSt8_Rb_treeIiSt4pairIKiNSt7__cxx1112basic_stringIcSt11char_traitsIcESaIcEEEESt10_Select1stIS8_ESt4lessIiESaIS8_EE13_Rb_tree_implISC_Lb1EEC2Ev(ptr noundef nonnull align 8 dereferenceable(48) %this) unnamed_addr #2 comdat align 2 {
entry:
  %this.addr = alloca ptr, align 8
  store ptr %this, ptr %this.addr, align 8
  %this1 = load ptr, ptr %this.addr, align 8
  call void @_ZNSaISt13_Rb_tree_nodeISt4pairIKiNSt7__cxx1112basic_stringIcSt11char_traitsIcESaIcEEEEEEC2Ev(ptr noundef nonnull align 1 dereferenceable(1) %this1) #12
  call void @_ZNSt20_Rb_tree_key_compareISt4lessIiEEC2Ev(ptr noundef nonnull align 1 dereferenceable(1) %this1) #12
  %0 = getelementptr inbounds i8, ptr %this1, i64 8
  call void @_ZNSt15_Rb_tree_headerC2Ev(ptr noundef nonnull align 8 dereferenceable(40) %0) #12
  ret void
}

; Function Attrs: mustprogress nounwind uwtable
define linkonce_odr dso_local void @_ZNSt8_Rb_treeIiSt4pairIKiNSt7__cxx1112basic_stringIcSt11char_traitsIcESaIcEEEESt10_Select1stIS8_ESt4lessIiESaIS8_EEC2Ev(ptr noundef nonnull align 8 dereferenceable(48) %this) unnamed_addr #2 comdat align 2 {
entry:
  %this.addr = alloca ptr, align 8
  store ptr %this, ptr %this.addr, align 8
  %this1 = load ptr, ptr %this.addr, align 8
  %_M_impl = getelementptr inbounds %"class.std::_Rb_tree.62", ptr %this1, i32 0, i32 0
  call void @_ZNSt8_Rb_treeIiSt4pairIKiNSt7__cxx1112basic_stringIcSt11char_traitsIcESaIcEEEESt10_Select1stIS8_ESt4lessIiESaIS8_EE13_Rb_tree_implISC_Lb1EEC2Ev(ptr noundef nonnull align 8 dereferenceable(48) %_M_impl) #12
  ret void
}

; Function Attrs: mustprogress nounwind uwtable
define linkonce_odr dso_local void @_ZNSt3mapIiNSt7__cxx1112basic_stringIcSt11char_traitsIcESaIcEEESt4lessIiESaISt4pairIKiS5_EEEC2Ev(ptr noundef nonnull align 8 dereferenceable(48) %this) unnamed_addr #2 comdat align 2 {
entry:
  %this.addr = alloca ptr, align 8
  store ptr %this, ptr %this.addr, align 8
  %this1 = load ptr, ptr %this.addr, align 8
  %_M_t = getelementptr inbounds %"class.std::map.61", ptr %this1, i32 0, i32 0
  call void @_ZNSt8_Rb_treeIiSt4pairIKiNSt7__cxx1112basic_stringIcSt11char_traitsIcESaIcEEEESt10_Select1stIS8_ESt4lessIiESaIS8_EEC2Ev(ptr noundef nonnull align 8 dereferenceable(48) %_M_t) #12
  ret void
}

; Function Attrs: mustprogress uwtable
define dso_local void @_ZN4base15LinearHistogramC2ERKNSt7__cxx1112basic_stringIcSt11char_traitsIcESaIcEEEiiPKNS_12BucketRangesEPiSC_jPNS_16HistogramSamples8MetadataESF_(ptr noundef nonnull align 8 dereferenceable(136) %this, ptr noundef nonnull align 8 dereferenceable(32) %name, i32 noundef %minimum, i32 noundef %maximum, ptr noundef %ranges, ptr noundef %counts, ptr noundef %logged_counts, i32 noundef %counts_size, ptr noundef %meta, ptr noundef %logged_meta) unnamed_addr #0 align 2 {
entry:
  %this.addr = alloca ptr, align 8
  %name.addr = alloca ptr, align 8
  %minimum.addr = alloca i32, align 4
  %maximum.addr = alloca i32, align 4
  %ranges.addr = alloca ptr, align 8
  %counts.addr = alloca ptr, align 8
  %logged_counts.addr = alloca ptr, align 8
  %counts_size.addr = alloca i32, align 4
  %meta.addr = alloca ptr, align 8
  %logged_meta.addr = alloca ptr, align 8
  store ptr %this, ptr %this.addr, align 8
  store ptr %name, ptr %name.addr, align 8
  store i32 %minimum, ptr %minimum.addr, align 4
  store i32 %maximum, ptr %maximum.addr, align 4
  store ptr %ranges, ptr %ranges.addr, align 8
  store ptr %counts, ptr %counts.addr, align 8
  store ptr %logged_counts, ptr %logged_counts.addr, align 8
  store i32 %counts_size, ptr %counts_size.addr, align 4
  store ptr %meta, ptr %meta.addr, align 8
  store ptr %logged_meta, ptr %logged_meta.addr, align 8
  %this1 = load ptr, ptr %this.addr, align 8
  %0 = load ptr, ptr %name.addr, align 8
  %1 = load i32, ptr %minimum.addr, align 4
  %2 = load i32, ptr %maximum.addr, align 4
  %3 = load ptr, ptr %ranges.addr, align 8
  %4 = load ptr, ptr %counts.addr, align 8
  %5 = load ptr, ptr %logged_counts.addr, align 8
  %6 = load i32, ptr %counts_size.addr, align 4
  %7 = load ptr, ptr %meta.addr, align 8
  %8 = load ptr, ptr %logged_meta.addr, align 8
  call void @_ZN4base9HistogramC2ERKNSt7__cxx1112basic_stringIcSt11char_traitsIcESaIcEEEiiPKNS_12BucketRangesEPiSC_jPNS_16HistogramSamples8MetadataESF_(ptr noundef nonnull align 8 dereferenceable(81) %this1, ptr noundef nonnull align 8 dereferenceable(32) %0, i32 noundef %1, i32 noundef %2, ptr noundef %3, ptr noundef %4, ptr noundef %5, i32 noundef %6, ptr noundef %7, ptr noundef %8)
  store ptr getelementptr inbounds ({ [25 x ptr] }, ptr @_ZTVN4base15LinearHistogramE, i32 0, i32 0, i32 2), ptr %this1, align 8
  %bucket_description_ = getelementptr inbounds %"class.base::LinearHistogram", ptr %this1, i32 0, i32 1
  call void @_ZNSt3mapIiNSt7__cxx1112basic_stringIcSt11char_traitsIcESaIcEEESt4lessIiESaISt4pairIKiS5_EEEC2Ev(ptr noundef nonnull align 8 dereferenceable(48) %bucket_description_) #12
  ret void
}

; Function Attrs: mustprogress uwtable
define dso_local void @_ZN4base16BooleanHistogramC2ERKNSt7__cxx1112basic_stringIcSt11char_traitsIcESaIcEEEPKNS_12BucketRangesEPiSC_PNS_16HistogramSamples8MetadataESF_(ptr noundef nonnull align 8 dereferenceable(136) %this, ptr noundef nonnull align 8 dereferenceable(32) %name, ptr noundef %ranges, ptr noundef %counts, ptr noundef %logged_counts, ptr noundef %meta, ptr noundef %logged_meta) unnamed_addr #0 align 2 {
entry:
  %this.addr = alloca ptr, align 8
  %name.addr = alloca ptr, align 8
  %ranges.addr = alloca ptr, align 8
  %counts.addr = alloca ptr, align 8
  %logged_counts.addr = alloca ptr, align 8
  %meta.addr = alloca ptr, align 8
  %logged_meta.addr = alloca ptr, align 8
  store ptr %this, ptr %this.addr, align 8
  store ptr %name, ptr %name.addr, align 8
  store ptr %ranges, ptr %ranges.addr, align 8
  store ptr %counts, ptr %counts.addr, align 8
  store ptr %logged_counts, ptr %logged_counts.addr, align 8
  store ptr %meta, ptr %meta.addr, align 8
  store ptr %logged_meta, ptr %logged_meta.addr, align 8
  %this1 = load ptr, ptr %this.addr, align 8
  %0 = load ptr, ptr %name.addr, align 8
  %1 = load ptr, ptr %ranges.addr, align 8
  %2 = load ptr, ptr %counts.addr, align 8
  %3 = load ptr, ptr %logged_counts.addr, align 8
  %4 = load ptr, ptr %meta.addr, align 8
  %5 = load ptr, ptr %logged_meta.addr, align 8
  call void @_ZN4base15LinearHistogramC2ERKNSt7__cxx1112basic_stringIcSt11char_traitsIcESaIcEEEiiPKNS_12BucketRangesEPiSC_jPNS_16HistogramSamples8MetadataESF_(ptr noundef nonnull align 8 dereferenceable(136) %this1, ptr noundef nonnull align 8 dereferenceable(32) %0, i32 noundef 1, i32 noundef 2, ptr noundef %1, ptr noundef %2, ptr noundef %3, i32 noundef 2, ptr noundef %4, ptr noundef %5)
  store ptr getelementptr inbounds ({ [25 x ptr] }, ptr @_ZTVN4base16BooleanHistogramE, i32 0, i32 0, i32 2), ptr %this1, align 8
  ret void
}