; Function Attrs: mustprogress uwtable
define dso_local void @_ZN4base16BooleanHistogramC2ERKNSt7__cxx1112basic_stringIcSt11char_traitsIcESaIcEEEPKNS_12BucketRangesEPiSC_PNS_16HistogramSamples8MetadataESF_(ptr noundef nonnull align 8 dereferenceable(136) %this, ptr noundef nonnull align 8 dereferenceable(32) %name, ptr noundef %ranges, ptr noundef %counts, ptr noundef %logged_counts, ptr noundef %meta, ptr noundef %logged_meta) unnamed_addr #0 align 2 personality ptr @__gxx_personality_v0 {
entry:
  tail call void @_ZN4base9HistogramC2ERKNSt7__cxx1112basic_stringIcSt11char_traitsIcESaIcEEEiiPKNS_12BucketRangesEPiSC_jPNS_16HistogramSamples8MetadataESF_(ptr noundef nonnull align 8 dereferenceable(81) %this, ptr noundef nonnull align 8 dereferenceable(32) %name, i32 noundef 1, i32 noundef 2, ptr noundef %ranges, ptr noundef %counts, ptr noundef %logged_counts, i32 noundef 2, ptr noundef %meta, ptr noundef %logged_meta)
  %0 = getelementptr inbounds i8, ptr %this, i64 96
  store i32 0, ptr %0, align 8
  %_M_parent.i.i.i.i.i.i = getelementptr inbounds i8, ptr %this, i64 104
  store ptr null, ptr %_M_parent.i.i.i.i.i.i, align 8
  %_M_left.i.i.i.i.i.i = getelementptr inbounds i8, ptr %this, i64 112
  store ptr %0, ptr %_M_left.i.i.i.i.i.i, align 8
  %_M_right.i.i.i.i.i.i = getelementptr inbounds i8, ptr %this, i64 120
  store ptr %0, ptr %_M_right.i.i.i.i.i.i, align 8
  %_M_node_count.i.i.i.i.i.i = getelementptr inbounds i8, ptr %this, i64 128
  store i64 0, ptr %_M_node_count.i.i.i.i.i.i, align 8
  store ptr getelementptr inbounds ({ [25 x ptr] }, ptr @_ZTVN4base16BooleanHistogramE, i64 0, i32 0, i64 2), ptr %this, align 8
  ret void
}